Certificate:
    Data:
        Version: 3 (0x2)
        Serial Number:
            06:b2:46:f3:77:a2:7d:af:db:51:f7:2e:87:a9:40:75:fa:96:c9:12
        Signature Algorithm: sha256WithRSAEncryption
        Issuer: C = FR, ST = IDF, L = Paris, O = NodeOPCUA, CN = NodeOPCUA-TEST
        Validity
            Not Before: Jul 23 08:54:12 2020 GMT
            Not After : Jul 20 08:54:12 2035 GMT
        Subject: C = FR, ST = IDF, L = Paris, O = NodeOPCUA, CN = NodeOPCUA-TEST
        Subject Public Key Info:
            Public Key Algorithm: rsaEncryption
                RSA Public-Key: (2048 bit)
                Modulus:
                    00:be:44:68:42:ec:39:84:ba:0b:9a:74:62:c3:18:
                    f9:43:d3:5b:c1:cc:44:0e:17:a4:b4:f6:30:b3:f1:
                    45:74:30:7d:69:fc:d3:af:3b:0f:80:21:4e:0e:26:
                    94:0f:8c:f5:53:25:fc:19:87:34:c3:e6:55:60:47:
                    9d:f7:43:e5:5a:77:bf:0e:3b:42:4c:49:f0:36:9e:
                    cc:b9:97:7e:ee:82:28:7f:00:d9:be:f2:1c:05:e7:
                    ca:c8:26:71:ff:ad:43:62:44:d8:4a:4a:91:54:76:
                    76:76:e9:13:e1:2e:70:8c:98:12:04:a9:3d:3e:bf:
                    dd:27:f5:32:28:cd:7b:64:fe:c7:1e:1b:d7:ec:0b:
                    7c:30:b4:f9:0a:b6:f8:77:7b:ef:2a:0e:9e:e7:66:
                    c5:a2:0f:42:1d:fe:1d:e6:22:08:0f:b4:aa:44:f2:
                    a6:29:46:89:c6:0b:49:88:2f:74:7b:fc:ce:65:62:
                    e5:b1:b0:de:42:f9:6f:91:2f:b1:56:09:a0:ae:a7:
                    f6:6b:38:5c:52:fe:0d:bd:23:b6:41:25:44:01:22:
                    c1:42:75:49:dd:a0:c6:76:fd:69:6b:a1:6a:e1:d5:
                    3b:f9:80:0e:51:56:89:82:07:28:c4:96:1c:6e:f9:
                    0c:de:1d:96:27:12:b7:90:90:fb:b7:5d:f1:1c:84:
                    2a:97
                Exponent: 65537 (0x10001)
        X509v3 extensions:
            X509v3 Subject Key Identifier: 
                A9:6F:25:A6:D3:BF:5F:3C:55:62:97:E7:B0:8D:FF:A8:31:1D:95:89
            X509v3 Authority Key Identifier: 
                keyid:A9:6F:25:A6:D3:BF:5F:3C:55:62:97:E7:B0:8D:FF:A8:31:1D:95:89

            X509v3 Basic Constraints: critical
                CA:FALSE
            X509v3 Key Usage: 
                Digital Signature, Non Repudiation, Key Encipherment, Data Encipherment, Certificate Sign
            X509v3 Extended Key Usage: 
                TLS Web Client Authentication, TLS Web Server Authentication
            Netscape Comment: 
                Self-signed certificate generated by Node-OPCUA Certificate utility
            X509v3 Subject Alternative Name: 
                URI:urn:blacksmog-Inspiron-7570:Node-OPCUA-Server, DNS:blacksmog-Inspiron-7570
    Signature Algorithm: sha256WithRSAEncryption
         4c:a3:41:6c:1c:74:44:70:86:da:e5:2b:4c:70:58:3d:ef:2f:
         3a:25:63:cc:81:f8:48:fe:2f:d4:23:f4:f2:65:f8:8e:ae:07:
         da:b7:48:5c:48:28:b5:9e:e7:ff:a0:3f:02:76:92:e4:b4:46:
         57:27:a2:41:b7:21:e4:da:90:2e:60:fa:e2:98:a2:1d:1e:33:
         49:a6:7e:b5:d3:53:3d:2f:4f:c1:a0:bd:f6:81:cf:8f:de:a5:
         db:7f:a6:09:d3:88:e1:51:11:fc:5b:dd:ae:73:e0:96:04:41:
         9c:b7:cc:f2:de:d9:a1:28:4f:6b:21:b4:6f:78:7d:1e:f1:15:
         24:9d:c7:85:4f:e0:02:84:24:22:bb:0b:64:ad:76:8a:66:6b:
         36:6d:dc:2e:61:05:08:8b:12:8d:03:ec:f6:f0:2a:31:55:1d:
         35:88:7e:d5:6e:2c:57:8c:72:35:3d:ea:b5:0c:fb:b1:ca:df:
         49:29:d7:61:94:67:a0:5c:32:11:8f:ad:7c:73:49:eb:35:a3:
         8b:0a:30:cf:10:b6:aa:ba:ba:7b:ce:00:10:58:91:45:0f:9d:
         ac:0e:46:92:58:e8:4b:c4:d4:5a:42:7f:bd:8e:d8:84:9f:78:
         96:01:ec:8d:3d:ea:ea:8d:d4:06:66:91:fc:c4:01:f8:d4:5a:
         2a:87:95:ce
-----BEGIN CERTIFICATE-----
MIIEZTCCA02gAwIBAgIUBrJG83eifa/bUfcuh6lAdfqWyRIwDQYJKoZIhvcNAQEL
BQAwWDELMAkGA1UEBhMCRlIxDDAKBgNVBAgMA0lERjEOMAwGA1UEBwwFUGFyaXMx
EjAQBgNVBAoMCU5vZGVPUENVQTEXMBUGA1UEAwwOTm9kZU9QQ1VBLVRFU1QwHhcN
MjAwNzIzMDg1NDEyWhcNMzUwNzIwMDg1NDEyWjBYMQswCQYDVQQGEwJGUjEMMAoG
A1UECAwDSURGMQ4wDAYDVQQHDAVQYXJpczESMBAGA1UECgwJTm9kZU9QQ1VBMRcw
FQYDVQQDDA5Ob2RlT1BDVUEtVEVTVDCCASIwDQYJKoZIhvcNAQEBBQADggEPADCC
AQoCggEBAL5EaELsOYS6C5p0YsMY+UPTW8HMRA4XpLT2MLPxRXQwfWn80687D4Ah
Tg4mlA+M9VMl/BmHNMPmVWBHnfdD5Vp3vw47QkxJ8DaezLmXfu6CKH8A2b7yHAXn
ysgmcf+tQ2JE2EpKkVR2dnbpE+EucIyYEgSpPT6/3Sf1MijNe2T+xx4b1+wLfDC0
+Qq2+Hd77yoOnudmxaIPQh3+HeYiCA+0qkTypilGicYLSYgvdHv8zmVi5bGw3kL5
b5EvsVYJoK6n9ms4XFL+Db0jtkElRAEiwUJ1Sd2gxnb9aWuhauHVO/mADlFWiYIH
KMSWHG75DN4dlicSt5CQ+7dd8RyEKpcCAwEAAaOCASUwggEhMB0GA1UdDgQWBBSp
byWm079fPFVil+ewjf+oMR2ViTAfBgNVHSMEGDAWgBSpbyWm079fPFVil+ewjf+o
MR2ViTAMBgNVHRMBAf8EAjAAMAsGA1UdDwQEAwIC9DAdBgNVHSUEFjAUBggrBgEF
BQcDAgYIKwYBBQUHAwEwUgYJYIZIAYb4QgENBEUWQ1NlbGYtc2lnbmVkIGNlcnRp
ZmljYXRlIGdlbmVyYXRlZCBieSBOb2RlLU9QQ1VBIENlcnRpZmljYXRlIHV0aWxp
dHkwUQYDVR0RBEowSIYtdXJuOmJsYWNrc21vZy1JbnNwaXJvbi03NTcwOk5vZGUt
T1BDVUEtU2VydmVyghdibGFja3Ntb2ctSW5zcGlyb24tNzU3MDANBgkqhkiG9w0B
AQsFAAOCAQEATKNBbBx0RHCG2uUrTHBYPe8vOiVjzIH4SP4v1CP08mX4jq4H2rdI
XEgotZ7n/6A/AnaS5LRGVyeiQbch5NqQLmD64piiHR4zSaZ+tdNTPS9PwaC99oHP
j96l23+mCdOI4VER/FvdrnPglgRBnLfM8t7ZoShPayG0b3h9HvEVJJ3HhU/gAoQk
IrsLZK12imZrNm3cLmEFCIsSjQPs9vAqMVUdNYh+1W4sV4xyNT3qtQz7scrfSSnX
YZRnoFwyEY+tfHNJ6zWjiwowzxC2qrq6e84AEFiRRQ+drA5GkljoS8TUWkJ/vY7Y
hJ94lgHsjT3q6o3UBmaR/MQB+NRaKoeVzg==
-----END CERTIFICATE-----
