Certificate:
    Data:
        Version: 3 (0x2)
        Serial Number:
            7a:56:05:87:68:97:a2:e5:35:02:4b:52:b0:ae:35:ae:18:e5:56:f4
        Signature Algorithm: sha256WithRSAEncryption
        Issuer: C = FR, ST = IDF, L = Paris, O = NodeOPCUA, CN = NodeOPCUA-TEST
        Validity
            Not Before: Jul 23 08:54:11 2020 GMT
            Not After : Jul 20 08:54:11 2035 GMT
        Subject: C = FR, ST = IDF, L = Paris, O = NodeOPCUA, CN = NodeOPCUA-TEST
        Subject Public Key Info:
            Public Key Algorithm: rsaEncryption
                RSA Public-Key: (2048 bit)
                Modulus:
                    00:bc:ef:f8:df:4d:8e:4b:e4:0b:c3:a1:39:fb:d3:
                    96:6b:bd:ce:15:45:cc:d7:b8:e2:74:ff:23:32:64:
                    b7:8d:9b:8b:92:a4:0e:05:68:d6:6b:d8:22:1b:98:
                    35:da:2c:19:8f:8e:6d:90:90:dc:59:8d:1c:14:76:
                    1c:89:cd:c3:49:14:a8:4d:a2:d5:7f:c4:2e:13:17:
                    1c:60:b8:c0:65:b8:b4:d5:60:43:3e:d0:b0:cb:e1:
                    e2:ee:2d:84:1f:aa:12:09:f9:9e:bc:c8:69:9a:47:
                    9b:e1:39:80:09:86:cd:76:0a:43:98:ea:bf:9f:7f:
                    77:db:8c:0b:7a:da:04:eb:db:7a:ff:ca:dc:e7:f9:
                    15:e4:72:8b:25:c1:d8:31:c8:7d:cd:17:18:5d:bd:
                    d4:f8:8b:ba:e2:b8:2b:f8:ee:32:9f:6e:49:e6:fd:
                    57:73:5b:ff:9a:1c:48:e2:d9:08:bf:2f:5b:a4:b5:
                    c8:d2:df:de:88:af:c8:a6:4f:78:a2:0d:bb:df:58:
                    76:de:03:5d:d8:78:4a:05:fd:ca:6f:6d:ea:cf:52:
                    1c:82:2b:27:6e:e0:46:b3:86:31:34:01:6a:a1:83:
                    f4:0f:bc:0b:78:9b:c5:ee:8e:6c:6d:71:08:3b:25:
                    59:a1:7e:d5:0c:42:f7:0a:9b:b5:5d:b9:70:67:c8:
                    f4:39
                Exponent: 65537 (0x10001)
        X509v3 extensions:
            X509v3 Subject Key Identifier: 
                BA:9A:96:BF:3C:0B:D4:73:9A:0D:50:D4:FD:D9:C1:9B:AA:12:FF:50
            X509v3 Authority Key Identifier: 
                keyid:BA:9A:96:BF:3C:0B:D4:73:9A:0D:50:D4:FD:D9:C1:9B:AA:12:FF:50

            X509v3 Basic Constraints: critical
                CA:FALSE
            X509v3 Key Usage: 
                Digital Signature, Non Repudiation, Key Encipherment, Data Encipherment, Certificate Sign
            X509v3 Extended Key Usage: 
                TLS Web Client Authentication, TLS Web Server Authentication
            Netscape Comment: 
                Self-signed certificate generated by Node-OPCUA Certificate utility
            X509v3 Subject Alternative Name: 
                URI:urn:blacksmog-Inspiron-7570:Node-OPCUA-Server, DNS:blacksmog-Inspiron-7570
    Signature Algorithm: sha256WithRSAEncryption
         b8:cb:a5:bc:f2:f0:48:71:b0:33:49:5f:05:3a:c2:da:39:cd:
         66:c5:81:60:2e:65:de:64:b2:4e:e9:0d:ad:39:76:6f:04:41:
         16:32:ee:46:36:a6:11:0c:61:3a:eb:84:36:9e:81:a3:0b:be:
         1a:f6:50:29:bd:59:be:ea:09:94:1e:ff:61:7a:96:7a:be:73:
         75:22:0a:d6:e2:c6:a5:e4:19:e5:9e:26:0a:fb:65:ba:55:0a:
         fc:38:98:67:c2:00:1d:99:83:1f:fd:55:aa:0a:d2:a6:16:59:
         86:7a:8f:1a:bc:e9:97:14:f5:7c:c7:72:3a:10:cb:21:a2:52:
         a5:e7:d5:7b:63:88:f8:ed:f4:0f:3b:50:fe:97:17:f2:9c:41:
         af:2c:02:9f:08:54:74:9a:08:ea:7d:82:dd:78:fc:0a:ac:ee:
         f8:d8:ab:84:48:c1:37:56:02:5c:44:90:e5:72:1a:82:f8:6a:
         e4:21:43:b4:2f:4e:73:16:84:89:93:b5:32:06:af:79:a8:0e:
         6a:77:bb:52:10:a3:57:a3:b4:d9:be:b7:dc:7e:27:d3:b8:78:
         87:4b:90:e1:e1:75:bd:66:8a:f8:bb:92:6e:a4:b2:ff:87:e2:
         73:ec:b5:ab:2f:e9:42:19:3a:89:b1:64:82:31:f7:50:f2:59:
         0a:d4:6b:8a
-----BEGIN CERTIFICATE-----
MIIEZTCCA02gAwIBAgIUelYFh2iXouU1AktSsK41rhjlVvQwDQYJKoZIhvcNAQEL
BQAwWDELMAkGA1UEBhMCRlIxDDAKBgNVBAgMA0lERjEOMAwGA1UEBwwFUGFyaXMx
EjAQBgNVBAoMCU5vZGVPUENVQTEXMBUGA1UEAwwOTm9kZU9QQ1VBLVRFU1QwHhcN
MjAwNzIzMDg1NDExWhcNMzUwNzIwMDg1NDExWjBYMQswCQYDVQQGEwJGUjEMMAoG
A1UECAwDSURGMQ4wDAYDVQQHDAVQYXJpczESMBAGA1UECgwJTm9kZU9QQ1VBMRcw
FQYDVQQDDA5Ob2RlT1BDVUEtVEVTVDCCASIwDQYJKoZIhvcNAQEBBQADggEPADCC
AQoCggEBALzv+N9NjkvkC8OhOfvTlmu9zhVFzNe44nT/IzJkt42bi5KkDgVo1mvY
IhuYNdosGY+ObZCQ3FmNHBR2HInNw0kUqE2i1X/ELhMXHGC4wGW4tNVgQz7QsMvh
4u4thB+qEgn5nrzIaZpHm+E5gAmGzXYKQ5jqv59/d9uMC3raBOvbev/K3Of5FeRy
iyXB2DHIfc0XGF291PiLuuK4K/juMp9uSeb9V3Nb/5ocSOLZCL8vW6S1yNLf3oiv
yKZPeKINu99Ydt4DXdh4SgX9ym9t6s9SHIIrJ27gRrOGMTQBaqGD9A+8C3ibxe6O
bG1xCDslWaF+1QxC9wqbtV25cGfI9DkCAwEAAaOCASUwggEhMB0GA1UdDgQWBBS6
mpa/PAvUc5oNUNT92cGbqhL/UDAfBgNVHSMEGDAWgBS6mpa/PAvUc5oNUNT92cGb
qhL/UDAMBgNVHRMBAf8EAjAAMAsGA1UdDwQEAwIC9DAdBgNVHSUEFjAUBggrBgEF
BQcDAgYIKwYBBQUHAwEwUgYJYIZIAYb4QgENBEUWQ1NlbGYtc2lnbmVkIGNlcnRp
ZmljYXRlIGdlbmVyYXRlZCBieSBOb2RlLU9QQ1VBIENlcnRpZmljYXRlIHV0aWxp
dHkwUQYDVR0RBEowSIYtdXJuOmJsYWNrc21vZy1JbnNwaXJvbi03NTcwOk5vZGUt
T1BDVUEtU2VydmVyghdibGFja3Ntb2ctSW5zcGlyb24tNzU3MDANBgkqhkiG9w0B
AQsFAAOCAQEAuMulvPLwSHGwM0lfBTrC2jnNZsWBYC5l3mSyTukNrTl2bwRBFjLu
RjamEQxhOuuENp6Bowu+GvZQKb1ZvuoJlB7/YXqWer5zdSIK1uLGpeQZ5Z4mCvtl
ulUK/DiYZ8IAHZmDH/1VqgrSphZZhnqPGrzplxT1fMdyOhDLIaJSpefVe2OI+O30
DztQ/pcX8pxBrywCnwhUdJoI6n2C3Xj8Cqzu+NirhEjBN1YCXESQ5XIagvhq5CFD
tC9OcxaEiZO1MgaveagOane7UhCjV6O02b633H4n07h4h0uQ4eF1vWaK+LuSbqSy
/4fic+y1qy/pQhk6ibFkgjH3UPJZCtRrig==
-----END CERTIFICATE-----
