Certificate:
    Data:
        Version: 3 (0x2)
        Serial Number:
            52:75:4b:19:65:9e:7c:bf:40:b1:97:61:90:91:92:f4:bf:d6:bb:f0
        Signature Algorithm: sha256WithRSAEncryption
        Issuer: C = FR, ST = IDF, L = Paris, O = NodeOPCUA, CN = NodeOPCUA-TEST
        Validity
            Not Before: Jul 23 08:54:14 2020 GMT
            Not After : Jul 20 08:54:14 2035 GMT
        Subject: C = FR, ST = IDF, L = Paris, O = NodeOPCUA, CN = NodeOPCUA-TEST
        Subject Public Key Info:
            Public Key Algorithm: rsaEncryption
                RSA Public-Key: (2048 bit)
                Modulus:
                    00:b3:ea:03:43:2b:8b:e5:6a:5e:2c:2c:7e:e3:a0:
                    c7:fe:00:5c:c3:50:17:c7:fd:ed:3c:33:26:1e:72:
                    0e:40:f4:d9:0a:aa:ce:76:89:97:c9:89:d6:7d:c9:
                    18:23:92:67:e4:26:2f:1a:fe:d9:4e:e5:2e:6e:26:
                    7f:89:23:93:cd:5b:c7:8f:c8:61:cc:ec:c0:42:24:
                    50:07:f3:2a:3b:a4:3f:2e:84:b2:82:b1:9c:5f:de:
                    57:c3:ab:55:67:07:13:75:57:8d:30:49:be:20:61:
                    d4:80:d2:05:c8:fd:f6:57:4e:43:d3:04:e3:8e:e5:
                    7d:86:76:ae:73:bc:2f:f8:8e:24:45:ae:f9:13:6c:
                    61:c3:2e:78:4d:86:6f:3f:de:ac:c5:94:fb:d5:f9:
                    09:24:4c:19:70:07:a4:62:77:5b:49:8f:89:19:02:
                    19:83:41:26:04:86:04:52:ee:06:7c:90:b5:63:38:
                    08:bc:eb:3b:6b:da:b5:e9:33:0e:3b:02:0c:7c:55:
                    fb:07:9c:ae:a5:98:70:ca:1a:14:69:3a:5e:4e:2c:
                    4e:ca:90:83:c3:af:d5:ad:58:eb:91:57:33:b1:ad:
                    cf:e7:46:db:52:f9:e8:26:c4:63:9e:ad:5f:a9:f2:
                    7e:a4:f2:21:aa:ed:af:65:84:58:07:b9:3f:2b:55:
                    8b:23
                Exponent: 65537 (0x10001)
        X509v3 extensions:
            X509v3 Subject Key Identifier: 
                B7:E5:D3:AE:CE:6B:F4:A5:F7:C2:F0:9F:3C:C9:52:50:2A:6B:9C:9E
            X509v3 Authority Key Identifier: 
                keyid:B7:E5:D3:AE:CE:6B:F4:A5:F7:C2:F0:9F:3C:C9:52:50:2A:6B:9C:9E

            X509v3 Basic Constraints: critical
                CA:FALSE
            X509v3 Key Usage: 
                Digital Signature, Non Repudiation, Key Encipherment, Data Encipherment, Certificate Sign
            X509v3 Extended Key Usage: 
                TLS Web Client Authentication, TLS Web Server Authentication
            Netscape Comment: 
                Self-signed certificate generated by Node-OPCUA Certificate utility
            X509v3 Subject Alternative Name: 
                URI:urn:blacksmog-Inspiron-7570:Node-OPCUA-Server, DNS:blacksmog-Inspiron-7570
    Signature Algorithm: sha256WithRSAEncryption
         68:37:13:a6:db:fe:ca:78:da:ea:30:1f:38:a7:96:58:85:44:
         39:7c:73:45:54:bb:d0:5d:de:9d:75:d4:b3:22:2b:43:02:3e:
         b6:6b:e7:9e:f1:09:db:fb:77:7e:fc:21:66:15:6a:70:e0:a1:
         c6:cf:4d:4c:e2:ba:2d:a9:9e:b0:55:3e:fc:b6:8a:df:d5:29:
         df:59:14:2e:4f:32:aa:6f:36:f4:e2:8b:d0:ba:78:24:f9:35:
         39:88:13:e2:ba:63:12:84:04:5e:d8:93:29:f9:81:c2:e7:80:
         30:e3:b8:5e:4b:06:83:49:f3:b5:e1:79:74:ab:eb:21:f5:18:
         40:e0:fb:43:c3:06:1a:f3:3e:4b:4a:70:b2:af:e5:8b:9c:50:
         2a:45:72:e0:7c:0b:4c:57:fd:88:f6:17:b5:0a:40:11:70:1c:
         d4:51:99:8a:43:75:f8:1a:0e:5a:01:f8:7c:e7:d2:4d:04:6a:
         c1:3e:a6:a7:62:b6:e2:c5:3d:c5:70:fb:0f:52:23:5e:ee:c8:
         94:6d:b0:64:72:58:8c:f4:ef:10:46:f2:7d:70:a5:27:a4:18:
         a9:8b:7c:52:06:b0:95:f1:e8:d7:0d:cf:0e:3d:42:99:80:62:
         c7:2f:23:2e:20:b4:9b:de:eb:2a:1e:de:ff:92:b0:68:4d:5d:
         ea:f3:b4:1a
-----BEGIN CERTIFICATE-----
MIIEZTCCA02gAwIBAgIUUnVLGWWefL9AsZdhkJGS9L/Wu/AwDQYJKoZIhvcNAQEL
BQAwWDELMAkGA1UEBhMCRlIxDDAKBgNVBAgMA0lERjEOMAwGA1UEBwwFUGFyaXMx
EjAQBgNVBAoMCU5vZGVPUENVQTEXMBUGA1UEAwwOTm9kZU9QQ1VBLVRFU1QwHhcN
MjAwNzIzMDg1NDE0WhcNMzUwNzIwMDg1NDE0WjBYMQswCQYDVQQGEwJGUjEMMAoG
A1UECAwDSURGMQ4wDAYDVQQHDAVQYXJpczESMBAGA1UECgwJTm9kZU9QQ1VBMRcw
FQYDVQQDDA5Ob2RlT1BDVUEtVEVTVDCCASIwDQYJKoZIhvcNAQEBBQADggEPADCC
AQoCggEBALPqA0Mri+VqXiwsfuOgx/4AXMNQF8f97TwzJh5yDkD02QqqznaJl8mJ
1n3JGCOSZ+QmLxr+2U7lLm4mf4kjk81bx4/IYczswEIkUAfzKjukPy6EsoKxnF/e
V8OrVWcHE3VXjTBJviBh1IDSBcj99ldOQ9ME447lfYZ2rnO8L/iOJEWu+RNsYcMu
eE2Gbz/erMWU+9X5CSRMGXAHpGJ3W0mPiRkCGYNBJgSGBFLuBnyQtWM4CLzrO2va
tekzDjsCDHxV+wecrqWYcMoaFGk6Xk4sTsqQg8Ov1a1Y65FXM7Gtz+dG21L56CbE
Y56tX6nyfqTyIartr2WEWAe5PytViyMCAwEAAaOCASUwggEhMB0GA1UdDgQWBBS3
5dOuzmv0pffC8J88yVJQKmucnjAfBgNVHSMEGDAWgBS35dOuzmv0pffC8J88yVJQ
KmucnjAMBgNVHRMBAf8EAjAAMAsGA1UdDwQEAwIC9DAdBgNVHSUEFjAUBggrBgEF
BQcDAgYIKwYBBQUHAwEwUgYJYIZIAYb4QgENBEUWQ1NlbGYtc2lnbmVkIGNlcnRp
ZmljYXRlIGdlbmVyYXRlZCBieSBOb2RlLU9QQ1VBIENlcnRpZmljYXRlIHV0aWxp
dHkwUQYDVR0RBEowSIYtdXJuOmJsYWNrc21vZy1JbnNwaXJvbi03NTcwOk5vZGUt
T1BDVUEtU2VydmVyghdibGFja3Ntb2ctSW5zcGlyb24tNzU3MDANBgkqhkiG9w0B
AQsFAAOCAQEAaDcTptv+ynja6jAfOKeWWIVEOXxzRVS70F3enXXUsyIrQwI+tmvn
nvEJ2/t3fvwhZhVqcOChxs9NTOK6LamesFU+/LaK39Up31kULk8yqm829OKL0Lp4
JPk1OYgT4rpjEoQEXtiTKfmBwueAMOO4XksGg0nzteF5dKvrIfUYQOD7Q8MGGvM+
S0pwsq/li5xQKkVy4HwLTFf9iPYXtQpAEXAc1FGZikN1+BoOWgH4fOfSTQRqwT6m
p2K24sU9xXD7D1IjXu7IlG2wZHJYjPTvEEbyfXClJ6QYqYt8UgawlfHo1w3PDj1C
mYBixy8jLiC0m97rKh7e/5KwaE1d6vO0Gg==
-----END CERTIFICATE-----
